; Function Attrs: nounwind uwtable
define internal noalias ptr @srp_password_from_info_cb(ptr noundef %0, ptr readnone captures(none) %1) #4 {
  %3 = icmp eq ptr %0, null
  br i1 %3, label %.thread, label %4

4:                                                ; preds = %2
  %5 = load i32, ptr %0, align 8, !tbaa !10
  %6 = icmp eq i32 %5, 0
  br i1 %6, label %.thread11, label %7

7:                                                ; preds = %4
  %8 = and i32 %5, 128
  %.not = icmp eq i32 %8, 0
  br i1 %.not, label %.thread, label %9

9:                                                ; preds = %7
  %10 = tail call ptr @ossl_quic_obj_get0_handshake_layer(ptr noundef nonnull %0) #18
  %11 = icmp eq ptr %10, null
  br i1 %11, label %.thread, label %.thread11

.thread11:                                        ; preds = %4, %9
  %12 = phi ptr [ %10, %9 ], [ %0, %4 ]
  %13 = getelementptr inbounds nuw i8, ptr %12, i64 3128
  %14 = load ptr, ptr %13, align 8, !tbaa !191
  %15 = tail call noalias ptr @CRYPTO_strdup(ptr noundef %14, ptr noundef nonnull @.str.2, i32 noundef 3527) #18
  br label %.thread

.thread:                                          ; preds = %7, %2, %9, %.thread11
  %.0 = phi ptr [ %15, %.thread11 ], [ null, %9 ], [ null, %2 ], [ null, %7 ]
  ret ptr %.0
}